target datalayout = "e-m:e-p270:32:32-p271:32:32-p272:64:64-i64:64-i128:128-f80:128-n8:16:32:64-S128"
target triple = "x86_64-pc-linux-gnu"

%struct.opj_dwt_encode_v_job_t = type { %struct.dwt_local, i32, i32, ptr, i32, i32, ptr }
%struct.dwt_local = type { ptr, i32, i32, i32 }

; Function Attrs: nounwind uwtable
define internal void @opj_dwt_encode_v_func(ptr noundef %0, ptr noundef %1) #0 {
  %3 = alloca ptr, align 8
  %4 = alloca ptr, align 8
  %5 = alloca i32, align 4
  %6 = alloca ptr, align 8
  store ptr %0, ptr %3, align 8, !tbaa !20
  store ptr %1, ptr %4, align 8, !tbaa !164
  call void @llvm.lifetime.start.p0(i64 4, ptr %5) #9
  call void @llvm.lifetime.start.p0(i64 8, ptr %6) #9
  %7 = load ptr, ptr %3, align 8, !tbaa !20
  store ptr %7, ptr %6, align 8, !tbaa !20
  %8 = load ptr, ptr %6, align 8, !tbaa !20
  %9 = getelementptr inbounds nuw %struct.opj_dwt_encode_v_job_t, ptr %8, i32 0, i32 4
  %10 = load i32, ptr %9, align 8, !tbaa !49
  store i32 %10, ptr %5, align 4, !tbaa !24
  br label %11

11:                                               ; preds = %45, %2
  %12 = load i32, ptr %5, align 4, !tbaa !24
  %13 = add i32 %12, 8
  %14 = sub i32 %13, 1
  %15 = load ptr, ptr %6, align 8, !tbaa !20
  %16 = getelementptr inbounds nuw %struct.opj_dwt_encode_v_job_t, ptr %15, i32 0, i32 5
  %17 = load i32, ptr %16, align 4, !tbaa !50
  %18 = icmp ult i32 %14, %17
  br i1 %18, label %19, label %48

19:                                               ; preds = %11
  %20 = load ptr, ptr %6, align 8, !tbaa !20
  %21 = getelementptr inbounds nuw %struct.opj_dwt_encode_v_job_t, ptr %20, i32 0, i32 6
  %22 = load ptr, ptr %21, align 8, !tbaa !51
  %23 = load ptr, ptr %6, align 8, !tbaa !20
  %24 = getelementptr inbounds nuw %struct.opj_dwt_encode_v_job_t, ptr %23, i32 0, i32 3
  %25 = load ptr, ptr %24, align 8, !tbaa !48
  %26 = load i32, ptr %5, align 4, !tbaa !24
  %27 = zext i32 %26 to i64
  %28 = getelementptr inbounds nuw i32, ptr %25, i64 %27
  %29 = load ptr, ptr %6, align 8, !tbaa !20
  %30 = getelementptr inbounds nuw %struct.opj_dwt_encode_v_job_t, ptr %29, i32 0, i32 0
  %31 = getelementptr inbounds nuw %struct.dwt_local, ptr %30, i32 0, i32 0
  %32 = load ptr, ptr %31, align 8, !tbaa !40
  %33 = load ptr, ptr %6, align 8, !tbaa !20
  %34 = getelementptr inbounds nuw %struct.opj_dwt_encode_v_job_t, ptr %33, i32 0, i32 1
  %35 = load i32, ptr %34, align 8, !tbaa !46
  %36 = load ptr, ptr %6, align 8, !tbaa !20
  %37 = getelementptr inbounds nuw %struct.opj_dwt_encode_v_job_t, ptr %36, i32 0, i32 0
  %38 = getelementptr inbounds nuw %struct.dwt_local, ptr %37, i32 0, i32 3
  %39 = load i32, ptr %38, align 8, !tbaa !45
  %40 = icmp eq i32 %39, 0
  %41 = zext i1 %40 to i32
  %42 = load ptr, ptr %6, align 8, !tbaa !20
  %43 = getelementptr inbounds nuw %struct.opj_dwt_encode_v_job_t, ptr %42, i32 0, i32 2
  %44 = load i32, ptr %43, align 4, !tbaa !47
  call void %22(ptr noundef %28, ptr noundef %32, i32 noundef %35, i32 noundef %41, i32 noundef %44, i32 noundef 8)
  br label %45

45:                                               ; preds = %19
  %46 = load i32, ptr %5, align 4, !tbaa !24
  %47 = add i32 %46, 8
  store i32 %47, ptr %5, align 4, !tbaa !24
  br label %11, !llvm.loop !166

48:                                               ; preds = %11
  %49 = load i32, ptr %5, align 4, !tbaa !24
  %50 = load ptr, ptr %6, align 8, !tbaa !20
  %51 = getelementptr inbounds nuw %struct.opj_dwt_encode_v_job_t, ptr %50, i32 0, i32 5
  %52 = load i32, ptr %51, align 4, !tbaa !50
  %53 = icmp ult i32 %49, %52
  br i1 %53, label %54, label %85

54:                                               ; preds = %48
  %55 = load ptr, ptr %6, align 8, !tbaa !20
  %56 = getelementptr inbounds nuw %struct.opj_dwt_encode_v_job_t, ptr %55, i32 0, i32 6
  %57 = load ptr, ptr %56, align 8, !tbaa !51
  %58 = load ptr, ptr %6, align 8, !tbaa !20
  %59 = getelementptr inbounds nuw %struct.opj_dwt_encode_v_job_t, ptr %58, i32 0, i32 3
  %60 = load ptr, ptr %59, align 8, !tbaa !48
  %61 = load i32, ptr %5, align 4, !tbaa !24
  %62 = zext i32 %61 to i64
  %63 = getelementptr inbounds nuw i32, ptr %60, i64 %62
  %64 = load ptr, ptr %6, align 8, !tbaa !20
  %65 = getelementptr inbounds nuw %struct.opj_dwt_encode_v_job_t, ptr %64, i32 0, i32 0
  %66 = getelementptr inbounds nuw %struct.dwt_local, ptr %65, i32 0, i32 0
  %67 = load ptr, ptr %66, align 8, !tbaa !40
  %68 = load ptr, ptr %6, align 8, !tbaa !20
  %69 = getelementptr inbounds nuw %struct.opj_dwt_encode_v_job_t, ptr %68, i32 0, i32 1
  %70 = load i32, ptr %69, align 8, !tbaa !46
  %71 = load ptr, ptr %6, align 8, !tbaa !20
  %72 = getelementptr inbounds nuw %struct.opj_dwt_encode_v_job_t, ptr %71, i32 0, i32 0
  %73 = getelementptr inbounds nuw %struct.dwt_local, ptr %72, i32 0, i32 3
  %74 = load i32, ptr %73, align 8, !tbaa !45
  %75 = icmp eq i32 %74, 0
  %76 = zext i1 %75 to i32
  %77 = load ptr, ptr %6, align 8, !tbaa !20
  %78 = getelementptr inbounds nuw %struct.opj_dwt_encode_v_job_t, ptr %77, i32 0, i32 2
  %79 = load i32, ptr %78, align 4, !tbaa !47
  %80 = load ptr, ptr %6, align 8, !tbaa !20
  %81 = getelementptr inbounds nuw %struct.opj_dwt_encode_v_job_t, ptr %80, i32 0, i32 5
  %82 = load i32, ptr %81, align 4, !tbaa !50
  %83 = load i32, ptr %5, align 4, !tbaa !24
  %84 = sub i32 %82, %83
  call void %57(ptr noundef %63, ptr noundef %67, i32 noundef %70, i32 noundef %76, i32 noundef %79, i32 noundef %84)
  br label %85

85:                                               ; preds = %54, %48
  %86 = load ptr, ptr %6, align 8, !tbaa !20
  %87 = getelementptr inbounds nuw %struct.opj_dwt_encode_v_job_t, ptr %86, i32 0, i32 0
  %88 = getelementptr inbounds nuw %struct.dwt_local, ptr %87, i32 0, i32 0
  %89 = load ptr, ptr %88, align 8, !tbaa !40
  call void @opj_aligned_free(ptr noundef %89)
  %90 = load ptr, ptr %6, align 8, !tbaa !20
  call void @opj_free(ptr noundef %90)
  call void @llvm.lifetime.end.p0(i64 8, ptr %6) #9
  call void @llvm.lifetime.end.p0(i64 4, ptr %5) #9
  ret void
}