; Function Attrs: nounwind uwtable
define internal void @opj_dwt_encode_v_func(ptr noundef %0, ptr readnone captures(none) %1) #0 {
  %3 = getelementptr inbounds nuw i8, ptr %0, i64 40
  %4 = load i32, ptr %3, align 8, !tbaa !44
  %5 = getelementptr inbounds nuw i8, ptr %0, i64 44
  %6 = add i32 %4, 7
  %7 = load i32, ptr %5, align 4, !tbaa !45
  %8 = icmp ult i32 %6, %7
  br i1 %8, label %.lr.ph, label %._crit_edge

.lr.ph:                                           ; preds = %2
  %9 = getelementptr inbounds nuw i8, ptr %0, i64 48
  %10 = getelementptr inbounds nuw i8, ptr %0, i64 32
  %11 = getelementptr inbounds nuw i8, ptr %0, i64 24
  %12 = getelementptr inbounds nuw i8, ptr %0, i64 16
  %13 = getelementptr inbounds nuw i8, ptr %0, i64 28
  br label %14

14:                                               ; preds = %.lr.ph, %14
  %.025 = phi i32 [ %4, %.lr.ph ], [ %15, %14 ]
  %15 = add i32 %.025, 8
  %16 = load ptr, ptr %9, align 8, !tbaa !46
  %17 = load ptr, ptr %10, align 8, !tbaa !43
  %18 = zext i32 %.025 to i64
  %19 = getelementptr inbounds nuw i32, ptr %17, i64 %18
  %20 = load ptr, ptr %0, align 8, !tbaa !35
  %21 = load i32, ptr %11, align 8, !tbaa !41
  %22 = load i32, ptr %12, align 8, !tbaa !40
  %23 = icmp eq i32 %22, 0
  %24 = zext i1 %23 to i32
  %25 = load i32, ptr %13, align 4, !tbaa !42
  tail call void %16(ptr noundef %19, ptr noundef %20, i32 noundef %21, i32 noundef %24, i32 noundef %25, i32 noundef 8) #16
  %26 = add i32 %.025, 15
  %27 = load i32, ptr %5, align 4, !tbaa !45
  %28 = icmp ult i32 %26, %27
  br i1 %28, label %14, label %._crit_edge, !llvm.loop !260

._crit_edge:                                      ; preds = %14, %2
  %.0.lcssa = phi i32 [ %4, %2 ], [ %15, %14 ]
  %.lcssa = phi i32 [ %7, %2 ], [ %27, %14 ]
  %29 = icmp ult i32 %.0.lcssa, %.lcssa
  br i1 %29, label %30, label %47

30:                                               ; preds = %._crit_edge
  %31 = getelementptr inbounds nuw i8, ptr %0, i64 48
  %32 = load ptr, ptr %31, align 8, !tbaa !46
  %33 = getelementptr inbounds nuw i8, ptr %0, i64 32
  %34 = load ptr, ptr %33, align 8, !tbaa !43
  %35 = zext i32 %.0.lcssa to i64
  %36 = getelementptr inbounds nuw i32, ptr %34, i64 %35
  %37 = load ptr, ptr %0, align 8, !tbaa !35
  %38 = getelementptr inbounds nuw i8, ptr %0, i64 24
  %39 = load i32, ptr %38, align 8, !tbaa !41
  %40 = getelementptr inbounds nuw i8, ptr %0, i64 16
  %41 = load i32, ptr %40, align 8, !tbaa !40
  %42 = icmp eq i32 %41, 0
  %43 = zext i1 %42 to i32
  %44 = getelementptr inbounds nuw i8, ptr %0, i64 28
  %45 = load i32, ptr %44, align 4, !tbaa !42
  %46 = sub nuw i32 %.lcssa, %.0.lcssa
  tail call void %32(ptr noundef %36, ptr noundef %37, i32 noundef %39, i32 noundef %43, i32 noundef %45, i32 noundef %46) #16
  br label %47

47:                                               ; preds = %30, %._crit_edge
  %48 = load ptr, ptr %0, align 8, !tbaa !35
  tail call void @opj_aligned_free(ptr noundef %48) #16
  tail call void @opj_free(ptr noundef nonnull %0) #16
  ret void
}